; Function Attrs: nounwind uwtable
define ptr @l_Lake_Toml_Table_insertD___rarg(ptr noundef %0, ptr noundef %1, ptr noundef %2, ptr noundef %3, ptr noundef %4, ptr noundef %5) #0 {
  %7 = ptrtoint ptr %3 to i64
  %8 = and i64 %7, 1
  %.not = icmp eq i64 %8, 0
  br i1 %.not, label %9, label %lean_inc.exit

9:                                                ; preds = %6
  %.val.i = load i32, ptr %3, align 4, !tbaa !4
  %10 = icmp sgt i32 %.val.i, 0
  br i1 %10, label %11, label %13, !prof !11

11:                                               ; preds = %9
  %12 = add nuw i32 %.val.i, 1
  store i32 %12, ptr %3, align 4, !tbaa !4
  br label %lean_inc.exit

13:                                               ; preds = %9
  %.not.i27 = icmp eq i32 %.val.i, 0
  br i1 %.not.i27, label %lean_inc.exit, label %14

14:                                               ; preds = %13
  tail call void @lean_inc_ref_cold(ptr noundef nonnull %3) #4
  br label %lean_inc.exit

lean_inc.exit:                                    ; preds = %14, %13, %11, %6
  %15 = tail call ptr @lean_apply_2(ptr noundef %1, ptr noundef %3, ptr noundef %4) #4
  %16 = ptrtoint ptr %15 to i64
  %17 = and i64 %16, 1
  %.not28 = icmp eq i64 %17, 0
  br i1 %.not28, label %18, label %lean_dec.exit20

18:                                               ; preds = %lean_inc.exit
  %19 = load i32, ptr %15, align 4, !tbaa !4
  %20 = icmp sgt i32 %19, 1
  br i1 %20, label %21, label %23, !prof !11

21:                                               ; preds = %18
  %22 = add nsw i32 %19, -1
  store i32 %22, ptr %15, align 4, !tbaa !4
  br label %lean_dec.exit20

23:                                               ; preds = %18
  %.not.i = icmp eq i32 %19, 0
  br i1 %.not.i, label %lean_dec.exit20, label %24

24:                                               ; preds = %23
  tail call void @lean_dec_ref_cold(ptr noundef nonnull %15) #4
  br label %lean_dec.exit20

lean_dec.exit20:                                  ; preds = %24, %23, %21, %lean_inc.exit
  %25 = and i64 %16, 510
  %26 = icmp eq i64 %25, 0
  br i1 %26, label %27, label %31

27:                                               ; preds = %lean_dec.exit20
  %28 = tail call ptr @lean_apply_1(ptr noundef %0, ptr noundef %3) #4
  %29 = load ptr, ptr @l_Lake_Toml_instSmartInsertOfToToml_x3f___rarg___closed__1, align 8, !tbaa !9
  %30 = tail call ptr @l_Lake_Toml_RBDict_insert___rarg(ptr noundef %29, ptr noundef %2, ptr noundef %28, ptr noundef %5) #4
  br label %lean_dec.exit

31:                                               ; preds = %lean_dec.exit20
  br i1 %.not, label %32, label %lean_dec.exit19

32:                                               ; preds = %31
  %33 = load i32, ptr %3, align 4, !tbaa !4
  %34 = icmp sgt i32 %33, 1
  br i1 %34, label %35, label %37, !prof !11

35:                                               ; preds = %32
  %36 = add nsw i32 %33, -1
  store i32 %36, ptr %3, align 4, !tbaa !4
  br label %lean_dec.exit19

37:                                               ; preds = %32
  %.not.i21 = icmp eq i32 %33, 0
  br i1 %.not.i21, label %lean_dec.exit19, label %38

38:                                               ; preds = %37
  tail call void @lean_dec_ref_cold(ptr noundef nonnull %3) #4
  br label %lean_dec.exit19

lean_dec.exit19:                                  ; preds = %38, %37, %35, %31
  %39 = ptrtoint ptr %2 to i64
  %40 = and i64 %39, 1
  %.not29 = icmp eq i64 %40, 0
  br i1 %.not29, label %41, label %lean_dec.exit18

41:                                               ; preds = %lean_dec.exit19
  %42 = load i32, ptr %2, align 4, !tbaa !4
  %43 = icmp sgt i32 %42, 1
  br i1 %43, label %44, label %46, !prof !11

44:                                               ; preds = %41
  %45 = add nsw i32 %42, -1
  store i32 %45, ptr %2, align 4, !tbaa !4
  br label %lean_dec.exit18

46:                                               ; preds = %41
  %.not.i23 = icmp eq i32 %42, 0
  br i1 %.not.i23, label %lean_dec.exit18, label %47

47:                                               ; preds = %46
  tail call void @lean_dec_ref_cold(ptr noundef nonnull %2) #4
  br label %lean_dec.exit18

lean_dec.exit18:                                  ; preds = %47, %46, %44, %lean_dec.exit19
  %48 = ptrtoint ptr %0 to i64
  %49 = and i64 %48, 1
  %.not30 = icmp eq i64 %49, 0
  br i1 %.not30, label %50, label %lean_dec.exit

50:                                               ; preds = %lean_dec.exit18
  %51 = load i32, ptr %0, align 4, !tbaa !4
  %52 = icmp sgt i32 %51, 1
  br i1 %52, label %53, label %55, !prof !11

53:                                               ; preds = %50
  %54 = add nsw i32 %51, -1
  store i32 %54, ptr %0, align 4, !tbaa !4
  br label %lean_dec.exit

55:                                               ; preds = %50
  %.not.i25 = icmp eq i32 %51, 0
  br i1 %.not.i25, label %lean_dec.exit, label %56

56:                                               ; preds = %55
  tail call void @lean_dec_ref_cold(ptr noundef nonnull %0) #4
  br label %lean_dec.exit

lean_dec.exit:                                    ; preds = %lean_dec.exit18, %53, %55, %56, %27
  %.0 = phi ptr [ %30, %27 ], [ %5, %56 ], [ %5, %55 ], [ %5, %53 ], [ %5, %lean_dec.exit18 ]
  ret ptr %.0
}